	.file	"stack_hack.c"
	.text
.Ltext0:
	.file 0 "/home/lempo/git/cyber/Networking/application_layer_part_3" "stack_hack.c"
	.section	.rodata
.LC0:
	.string	"Enter func2"
.LC1:
	.string	"Exit func2"
	.text
	.globl	func2
	.type	func2, @function
func2:
.LFB0:
	.file 1 "stack_hack.c"
	.loc 1 4 1
	.cfi_startproc
	endbr64
	pushq	%rbp
	.cfi_def_cfa_offset 16
	.cfi_offset 6, -16
	movq	%rsp, %rbp
	.cfi_def_cfa_register 6
	subq	$32, %rsp
	movq	%rdi, -24(%rbp)
	.loc 1 6 5
	leaq	.LC0(%rip), %rax
	movq	%rax, %rdi
	call	puts@PLT
	.loc 1 8 5
	leaq	.LC1(%rip), %rax
	movq	%rax, %rdi
	call	puts@PLT
	.loc 1 10 12
	movq	-24(%rbp), %rax
	addq	$8, %rax
	movq	%rax, -8(%rbp)
	.loc 1 11 12
	movq	-8(%rbp), %rax
	addq	$8, %rax
	movq	%rax, -16(%rbp)
	.loc 1 12 36
	movq	-16(%rbp), %rax
	movq	(%rax), %rax
	.loc 1 12 20
	leaq	5(%rax), %rdx
	.loc 1 12 18
	movq	-16(%rbp), %rax
	movq	%rdx, (%rax)
	.loc 1 21 1
	nop
	leave
	.cfi_def_cfa 7, 8
	ret
	.cfi_endproc
.LFE0:
	.size	func2, .-func2
	.section	.rodata
.LC2:
	.string	"Enter func1"
.LC3:
	.string	"Exit func1"
	.text
	.globl	func1
	.type	func1, @function
func1:
.LFB1:
	.loc 1 24 1
	.cfi_startproc
	endbr64
	pushq	%rbp
	.cfi_def_cfa_offset 16
	.cfi_offset 6, -16
	movq	%rsp, %rbp
	.cfi_def_cfa_register 6
	subq	$16, %rsp
	.loc 1 26 5
	leaq	.LC2(%rip), %rax
	movq	%rax, %rdi
	call	puts@PLT
	.loc 1 27 5
	leaq	-8(%rbp), %rax
	movq	%rax, %rdi
	call	func2
	.loc 1 28 5
	leaq	.LC3(%rip), %rax
	movq	%rax, %rdi
	call	puts@PLT
	.loc 1 29 1
	nop
	leave
	.cfi_def_cfa 7, 8
	ret
	.cfi_endproc
.LFE1:
	.size	func1, .-func1
	.section	.rodata
.LC4:
	.string	"x=%lu\n"
.LC5:
	.string	"Exit main"
	.text
	.globl	main
	.type	main, @function
main:
.LFB2:
	.loc 1 32 1
	.cfi_startproc
	endbr64
	pushq	%rbp
	.cfi_def_cfa_offset 16
	.cfi_offset 6, -16
	movq	%rsp, %rbp
	.cfi_def_cfa_register 6
	subq	$16, %rsp
	.loc 1 33 16
	movq	$1, -8(%rbp)
	.loc 1 34 10
	movq	$5, -16(%rbp)
	.loc 1 36 5
	movq	-8(%rbp), %rax
	movq	%rax, %rsi
	leaq	.LC4(%rip), %rax
	movq	%rax, %rdi
	movl	$0, %eax
	call	printf@PLT
	.loc 1 38 5
	movl	$0, %eax
	call	func1
	.loc 1 40 5
	leaq	.LC5(%rip), %rax
	movq	%rax, %rdi
	call	puts@PLT
	.loc 1 41 12
	movl	$0, %eax
	.loc 1 42 1
	leave
	.cfi_def_cfa 7, 8
	ret
	.cfi_endproc
.LFE2:
	.size	main, .-main
.Letext0:
	.file 2 "/usr/include/stdio.h"
	.section	.note.GNU-stack,"",@progbits
	.section	.note.gnu.property,"a"
	.align 8
	.long	1f - 0f
	.long	4f - 1f
	.long	5
0:
	.string	"GNU"
1:
	.align 8
	.long	0xc0000002
	.long	3f - 2f
2:
	.long	0x3
3:
	.align 8
4:
